target datalayout = "e-m:e-p270:32:32-p271:32:32-p272:64:64-i64:64-i128:128-f80:128-n8:16:32:64-S128"
target triple = "x86_64-pc-linux-gnu"

; Function Attrs: nounwind uwtable
define internal ptr @Abc_ObjNot(ptr noundef %0) #0 {
  %2 = alloca ptr, align 8
  store ptr %0, ptr %2, align 8
  %3 = load ptr, ptr %2, align 8
  %4 = ptrtoint ptr %3 to i64
  %5 = xor i64 %4, 1
  %6 = inttoptr i64 %5 to ptr
  ret ptr %6
}

; Function Attrs: nounwind uwtable
define ptr @Abc_AigOr(ptr noundef %0, ptr noundef %1, ptr noundef %2) #0 {
  %4 = alloca ptr, align 8
  %5 = alloca ptr, align 8
  %6 = alloca ptr, align 8
  store ptr %0, ptr %4, align 8
  store ptr %1, ptr %5, align 8
  store ptr %2, ptr %6, align 8
  %7 = load ptr, ptr %4, align 8
  %8 = load ptr, ptr %5, align 8
  %9 = call ptr @Abc_ObjNot(ptr noundef %8)
  %10 = load ptr, ptr %6, align 8
  %11 = call ptr @Abc_ObjNot(ptr noundef %10)
  %12 = call ptr @Abc_AigAnd(ptr noundef %7, ptr noundef %9, ptr noundef %11)
  %13 = call ptr @Abc_ObjNot(ptr noundef %12)
  ret ptr %13
}

; Function Attrs: nounwind uwtable
define ptr @Abc_AigMiter_rec(ptr noundef %0, ptr noundef %1, i32 noundef %2) #0 {
  %4 = alloca ptr, align 8
  %5 = alloca ptr, align 8
  %6 = alloca ptr, align 8
  %7 = alloca i32, align 4
  %8 = alloca ptr, align 8
  %9 = alloca ptr, align 8
  store ptr %0, ptr %5, align 8
  store ptr %1, ptr %6, align 8
  store i32 %2, ptr %7, align 4
  %10 = load i32, ptr %7, align 4
  %11 = icmp eq i32 %10, 1
  br i1 %11, label %12, label %16

12:                                               ; preds = %3
  %13 = load ptr, ptr %6, align 8
  %14 = getelementptr inbounds ptr, ptr %13, i64 0
  %15 = load ptr, ptr %14, align 8
  store ptr %15, ptr %4, align 8
  br label %37

16:                                               ; preds = %3
  %17 = load ptr, ptr %5, align 8
  %18 = load ptr, ptr %6, align 8
  %19 = load i32, ptr %7, align 4
  %20 = sdiv i32 %19, 2
  %21 = call ptr @Abc_AigMiter_rec(ptr noundef %17, ptr noundef %18, i32 noundef %20)
  store ptr %21, ptr %8, align 8
  %22 = load ptr, ptr %5, align 8
  %23 = load ptr, ptr %6, align 8
  %24 = load i32, ptr %7, align 4
  %25 = sdiv i32 %24, 2
  %26 = sext i32 %25 to i64
  %27 = getelementptr inbounds ptr, ptr %23, i64 %26
  %28 = load i32, ptr %7, align 4
  %29 = load i32, ptr %7, align 4
  %30 = sdiv i32 %29, 2
  %31 = sub nsw i32 %28, %30
  %32 = call ptr @Abc_AigMiter_rec(ptr noundef %22, ptr noundef %27, i32 noundef %31)
  store ptr %32, ptr %9, align 8
  %33 = load ptr, ptr %5, align 8
  %34 = load ptr, ptr %8, align 8
  %35 = load ptr, ptr %9, align 8
  %36 = call ptr @Abc_AigOr(ptr noundef %33, ptr noundef %34, ptr noundef %35)
  store ptr %36, ptr %4, align 8
  br label %37

37:                                               ; preds = %16, %12
  %38 = load ptr, ptr %4, align 8
  ret ptr %38
}