; Function Attrs: nounwind uwtable
define ptr @Abc_AigMiter_rec(ptr noundef %0, ptr noundef %1, i32 noundef %2) local_unnamed_addr #0 {
  %4 = icmp eq i32 %2, 1
  br i1 %4, label %common.ret, label %6

common.ret:                                       ; preds = %3
  %5 = load ptr, ptr %1, align 8
  br label %common.ret14

common.ret14:                                     ; preds = %6, %common.ret
  %common.ret14.op = phi ptr [ %5, %common.ret ], [ %22, %6 ]
  ret ptr %common.ret14.op

6:                                                ; preds = %3
  %7 = sdiv i32 %2, 2
  %8 = tail call ptr @Abc_AigMiter_rec(ptr noundef %0, ptr noundef %1, i32 noundef %7)
  %9 = sext i32 %7 to i64
  %10 = getelementptr inbounds ptr, ptr %1, i64 %9
  %11 = sub nsw i32 %2, %7
  %12 = tail call ptr @Abc_AigMiter_rec(ptr noundef %0, ptr noundef %10, i32 noundef %11)
  %13 = ptrtoint ptr %8 to i64
  %14 = xor i64 %13, 1
  %15 = inttoptr i64 %14 to ptr
  %16 = ptrtoint ptr %12 to i64
  %17 = xor i64 %16, 1
  %18 = inttoptr i64 %17 to ptr
  %19 = tail call ptr @Abc_AigAnd(ptr noundef %0, ptr noundef %15, ptr noundef %18)
  %20 = ptrtoint ptr %19 to i64
  %21 = xor i64 %20, 1
  %22 = inttoptr i64 %21 to ptr
  br label %common.ret14
}